target datalayout = "e-m:e-p270:32:32-p271:32:32-p272:64:64-i64:64-i128:128-f80:128-n8:16:32:64-S128"
target triple = "x86_64-pc-linux-gnu"

%"struct.Luau::Position" = type { i32, i32 }
%"class.Luau::AstVisitor" = type { ptr }
%"class.Luau::AstNode" = type <{ ptr, i32, %"struct.Luau::Location", [4 x i8] }>
%"struct.Luau::Location" = type { %"struct.Luau::Position", %"struct.Luau::Position" }
%"struct.Luau::(anonymous namespace)::FindNode" = type { %"class.Luau::AstVisitor", %"struct.Luau::Position", %"struct.Luau::Position", ptr }

; Function Attrs: mustprogress nounwind uwtable
define linkonce_odr dso_local noundef zeroext i1 @_ZNK4Luau8PositiongtERKS0_(ptr noundef nonnull align 4 dereferenceable(8) %0, ptr noundef nonnull align 4 dereferenceable(8) %1) #2 comdat align 2 {
  %3 = alloca i1, align 1
  %4 = alloca ptr, align 8
  %5 = alloca ptr, align 8
  store ptr %0, ptr %4, align 8, !tbaa !49
  store ptr %1, ptr %5, align 8, !tbaa !49
  %6 = load ptr, ptr %4, align 8
  %7 = getelementptr inbounds nuw %"struct.Luau::Position", ptr %6, i32 0, i32 0
  %8 = load i32, ptr %7, align 4, !tbaa !52
  %9 = load ptr, ptr %5, align 8, !tbaa !49
  %10 = getelementptr inbounds nuw %"struct.Luau::Position", ptr %9, i32 0, i32 0
  %11 = load i32, ptr %10, align 4, !tbaa !52
  %12 = icmp eq i32 %8, %11
  br i1 %12, label %13, label %20

13:                                               ; preds = %2
  %14 = getelementptr inbounds nuw %"struct.Luau::Position", ptr %6, i32 0, i32 1
  %15 = load i32, ptr %14, align 4, !tbaa !51
  %16 = load ptr, ptr %5, align 8, !tbaa !49
  %17 = getelementptr inbounds nuw %"struct.Luau::Position", ptr %16, i32 0, i32 1
  %18 = load i32, ptr %17, align 4, !tbaa !51
  %19 = icmp ugt i32 %15, %18
  store i1 %19, ptr %3, align 1
  br label %27

20:                                               ; preds = %2
  %21 = getelementptr inbounds nuw %"struct.Luau::Position", ptr %6, i32 0, i32 0
  %22 = load i32, ptr %21, align 4, !tbaa !52
  %23 = load ptr, ptr %5, align 8, !tbaa !49
  %24 = getelementptr inbounds nuw %"struct.Luau::Position", ptr %23, i32 0, i32 0
  %25 = load i32, ptr %24, align 4, !tbaa !52
  %26 = icmp ugt i32 %22, %25
  store i1 %26, ptr %3, align 1
  br label %27

27:                                               ; preds = %20, %13
  %28 = load i1, ptr %3, align 1
  ret i1 %28
}

; Function Attrs: mustprogress uwtable
define linkonce_odr dso_local noundef zeroext i1 @_ZNK4Luau8PositiongeERKS0_(ptr noundef nonnull align 4 dereferenceable(8) %0, ptr noundef nonnull align 4 dereferenceable(8) %1) #5 comdat align 2 {
  %3 = alloca ptr, align 8
  %4 = alloca ptr, align 8
  store ptr %0, ptr %3, align 8, !tbaa !49
  store ptr %1, ptr %4, align 8, !tbaa !49
  %5 = load ptr, ptr %3, align 8
  %6 = load ptr, ptr %4, align 8, !tbaa !49
  %7 = call noundef zeroext i1 @_ZNK4Luau8PositioneqERKS0_(ptr noundef nonnull align 4 dereferenceable(8) %5, ptr noundef nonnull align 4 dereferenceable(8) %6)
  br i1 %7, label %11, label %8

8:                                                ; preds = %2
  %9 = load ptr, ptr %4, align 8, !tbaa !49
  %10 = call noundef zeroext i1 @_ZNK4Luau8PositiongtERKS0_(ptr noundef nonnull align 4 dereferenceable(8) %5, ptr noundef nonnull align 4 dereferenceable(8) %9)
  br label %11

11:                                               ; preds = %8, %2
  %12 = phi i1 [ true, %2 ], [ %10, %8 ]
  ret i1 %12
}

; Function Attrs: mustprogress nounwind uwtable
define linkonce_odr dso_local noundef zeroext i1 @_ZNK4Luau8PositioneqERKS0_(ptr noundef nonnull align 4 dereferenceable(8) %0, ptr noundef nonnull align 4 dereferenceable(8) %1) #2 comdat align 2 {
  %3 = alloca ptr, align 8
  %4 = alloca ptr, align 8
  store ptr %0, ptr %3, align 8, !tbaa !49
  store ptr %1, ptr %4, align 8, !tbaa !49
  %5 = load ptr, ptr %3, align 8
  %6 = getelementptr inbounds nuw %"struct.Luau::Position", ptr %5, i32 0, i32 1
  %7 = load i32, ptr %6, align 4, !tbaa !51
  %8 = load ptr, ptr %4, align 8, !tbaa !49
  %9 = getelementptr inbounds nuw %"struct.Luau::Position", ptr %8, i32 0, i32 1
  %10 = load i32, ptr %9, align 4, !tbaa !51
  %11 = icmp eq i32 %7, %10
  br i1 %11, label %12, label %19

12:                                               ; preds = %2
  %13 = getelementptr inbounds nuw %"struct.Luau::Position", ptr %5, i32 0, i32 0
  %14 = load i32, ptr %13, align 4, !tbaa !52
  %15 = load ptr, ptr %4, align 8, !tbaa !49
  %16 = getelementptr inbounds nuw %"struct.Luau::Position", ptr %15, i32 0, i32 0
  %17 = load i32, ptr %16, align 4, !tbaa !52
  %18 = icmp eq i32 %14, %17
  br label %19

19:                                               ; preds = %12, %2
  %20 = phi i1 [ false, %2 ], [ %18, %12 ]
  ret i1 %20
}

; Function Attrs: mustprogress uwtable
define internal noundef zeroext i1 @_ZN4Luau12_GLOBAL__N_18FindNode5visitEPNS_7AstNodeE(ptr noundef nonnull align 8 dereferenceable(32) %0, ptr noundef %1) unnamed_addr #5 align 2 {
  %3 = alloca i1, align 1
  %4 = alloca ptr, align 8
  %5 = alloca ptr, align 8
  store ptr %0, ptr %4, align 8, !tbaa !101
  store ptr %1, ptr %5, align 8, !tbaa !34
  %6 = load ptr, ptr %4, align 8
  %7 = load ptr, ptr %5, align 8, !tbaa !34
  %8 = getelementptr inbounds nuw %"class.Luau::AstNode", ptr %7, i32 0, i32 2
  %9 = getelementptr inbounds nuw %"struct.Luau::(anonymous namespace)::FindNode", ptr %6, i32 0, i32 1
  %10 = call noundef zeroext i1 @_ZNK4Luau8Location8containsERKNS_8PositionE(ptr noundef nonnull align 4 dereferenceable(16) %8, ptr noundef nonnull align 4 dereferenceable(8) %9)
  br i1 %10, label %11, label %14

11:                                               ; preds = %2
  %12 = load ptr, ptr %5, align 8, !tbaa !34
  %13 = getelementptr inbounds nuw %"struct.Luau::(anonymous namespace)::FindNode", ptr %6, i32 0, i32 3
  store ptr %12, ptr %13, align 8, !tbaa !99
  store i1 true, ptr %3, align 1
  br label %28

14:                                               ; preds = %2
  %15 = load ptr, ptr %5, align 8, !tbaa !34
  %16 = getelementptr inbounds nuw %"class.Luau::AstNode", ptr %15, i32 0, i32 2
  %17 = getelementptr inbounds nuw %"struct.Luau::Location", ptr %16, i32 0, i32 1
  %18 = getelementptr inbounds nuw %"struct.Luau::(anonymous namespace)::FindNode", ptr %6, i32 0, i32 2
  %19 = call noundef zeroext i1 @_ZNK4Luau8PositioneqERKS0_(ptr noundef nonnull align 4 dereferenceable(8) %17, ptr noundef nonnull align 4 dereferenceable(8) %18)
  br i1 %19, label %20, label %27

20:                                               ; preds = %14
  %21 = getelementptr inbounds nuw %"struct.Luau::(anonymous namespace)::FindNode", ptr %6, i32 0, i32 1
  %22 = getelementptr inbounds nuw %"struct.Luau::(anonymous namespace)::FindNode", ptr %6, i32 0, i32 2
  %23 = call noundef zeroext i1 @_ZNK4Luau8PositiongeERKS0_(ptr noundef nonnull align 4 dereferenceable(8) %21, ptr noundef nonnull align 4 dereferenceable(8) %22)
  br i1 %23, label %24, label %27

24:                                               ; preds = %20
  %25 = load ptr, ptr %5, align 8, !tbaa !34
  %26 = getelementptr inbounds nuw %"struct.Luau::(anonymous namespace)::FindNode", ptr %6, i32 0, i32 3
  store ptr %25, ptr %26, align 8, !tbaa !99
  store i1 true, ptr %3, align 1
  br label %28

27:                                               ; preds = %20, %14
  store i1 false, ptr %3, align 1
  br label %28

28:                                               ; preds = %27, %24, %11
  %29 = load i1, ptr %3, align 1
  ret i1 %29
}