; Function Attrs: mustprogress uwtable
define internal noundef zeroext i1 @_ZN4Luau12_GLOBAL__N_18FindNode5visitEPNS_7AstNodeE(ptr noundef nonnull align 8 dereferenceable(32) %0, ptr noundef %1) unnamed_addr #4 align 2 {
  %3 = getelementptr inbounds nuw i8, ptr %1, i64 12
  %4 = getelementptr inbounds nuw i8, ptr %0, i64 8
  %5 = tail call noundef zeroext i1 @_ZNK4Luau8Location8containsERKNS_8PositionE(ptr noundef nonnull align 4 dereferenceable(16) %3, ptr noundef nonnull align 4 dereferenceable(8) %4)
  br i1 %5, label %.sink.split, label %6

6:                                                ; preds = %2
  %7 = getelementptr inbounds nuw i8, ptr %1, i64 20
  %8 = getelementptr inbounds nuw i8, ptr %0, i64 16
  %9 = getelementptr inbounds nuw i8, ptr %1, i64 24
  %10 = load i32, ptr %9, align 4, !tbaa !29
  %11 = getelementptr inbounds nuw i8, ptr %0, i64 20
  %12 = load i32, ptr %11, align 4, !tbaa !29
  %13 = icmp eq i32 %10, %12
  %14 = load i32, ptr %7, align 4
  %15 = load i32, ptr %8, align 8
  %16 = icmp eq i32 %14, %15
  %17 = select i1 %13, i1 %16, i1 false
  br i1 %17, label %18, label %28

18:                                               ; preds = %6
  %19 = getelementptr inbounds nuw i8, ptr %0, i64 12
  %20 = load i32, ptr %19, align 4, !tbaa !29
  %21 = icmp eq i32 %20, %10
  %22 = load i32, ptr %4, align 8
  %23 = icmp eq i32 %22, %14
  %24 = select i1 %21, i1 %23, i1 false
  br i1 %24, label %.sink.split, label %_ZNK4Luau8PositiongeERKS0_.exit

_ZNK4Luau8PositiongeERKS0_.exit:                  ; preds = %18
  %25 = icmp ugt i32 %20, %10
  %26 = icmp ugt i32 %22, %14
  %.0.i.i = select i1 %23, i1 %25, i1 %26
  br i1 %.0.i.i, label %.sink.split, label %28

.sink.split:                                      ; preds = %_ZNK4Luau8PositiongeERKS0_.exit, %18, %2
  %27 = getelementptr inbounds nuw i8, ptr %0, i64 24
  store ptr %1, ptr %27, align 8, !tbaa !81
  br label %28

28:                                               ; preds = %.sink.split, %6, %_ZNK4Luau8PositiongeERKS0_.exit
  %.0 = phi i1 [ false, %_ZNK4Luau8PositiongeERKS0_.exit ], [ false, %6 ], [ true, %.sink.split ]
  ret i1 %.0
}